; Function Attrs: nounwind uwtable
define hidden range(i32 -1, 1) i32 @output_shmem(ptr noundef captures(none) %0, ptr noundef %1) local_unnamed_addr #0 {
  %3 = alloca %struct.lstopo_shmem_header, align 8
  %4 = alloca i64, align 8
  %5 = alloca %struct.stat, align 8
  call void @llvm.lifetime.start.p0(i64 32, ptr nonnull %3) #9
  call void @llvm.lifetime.start.p0(i64 8, ptr nonnull %4) #9
  call void @llvm.lifetime.start.p0(i64 144, ptr nonnull %5) #9
  %.not = icmp eq ptr %1, null
  br i1 %.not, label %8, label %6

6:                                                ; preds = %2
  %7 = tail call i32 @strcasecmp(ptr noundef nonnull %1, ptr noundef nonnull @.str) #10
  %.not32 = icmp eq i32 %7, 0
  br i1 %.not32, label %8, label %11

8:                                                ; preds = %6, %2
  %9 = load ptr, ptr @stderr, align 8, !tbaa !4
  %10 = tail call i64 @fwrite(ptr nonnull @.str.1, i64 40, i64 1, ptr %9) #11
  br label %107

11:                                               ; preds = %6
  %12 = call i32 @stat(ptr noundef nonnull %1, ptr noundef nonnull %5) #9
  %.not33 = icmp eq i32 %12, 0
  br i1 %.not33, label %13, label %20

13:                                               ; preds = %11
  %14 = getelementptr inbounds nuw i8, ptr %0, i64 32
  %15 = load i32, ptr %14, align 8, !tbaa !9
  %.not34 = icmp eq i32 %15, 0
  br i1 %.not34, label %16, label %20

16:                                               ; preds = %13
  %17 = load ptr, ptr @stderr, align 8, !tbaa !4
  %18 = tail call ptr @strerror(i32 noundef 17) #9
  %19 = tail call i32 (ptr, ptr, ...) @fprintf(ptr noundef %17, ptr noundef nonnull @.str.2, ptr noundef nonnull %1, ptr noundef %18) #12
  br label %107

20:                                               ; preds = %13, %11
  %21 = load ptr, ptr %0, align 8, !tbaa !21
  %22 = call i32 @hwloc_shmem_topology_get_length(ptr noundef %21, ptr noundef nonnull %4, i64 noundef 0) #9
  %23 = icmp slt i32 %22, 0
  br i1 %23, label %24, label %33

24:                                               ; preds = %20
  %25 = tail call ptr @__errno_location() #13
  %26 = load i32, ptr %25, align 4, !tbaa !22
  %27 = icmp eq i32 %26, 38
  %28 = load ptr, ptr @stderr, align 8, !tbaa !4
  br i1 %27, label %29, label %31

29:                                               ; preds = %24
  %30 = call i64 @fwrite(ptr nonnull @.str.3, i64 29, i64 1, ptr %28) #11
  br label %107

31:                                               ; preds = %24
  %32 = call i64 @fwrite(ptr nonnull @.str.4, i64 47, i64 1, ptr %28) #11
  br label %107

33:                                               ; preds = %20
  %34 = call i32 (ptr, i32, ...) @open(ptr noundef nonnull %1, i32 noundef 578, i32 noundef 384) #9
  %35 = icmp slt i32 %34, 0
  br i1 %35, label %36, label %42

36:                                               ; preds = %33
  %37 = load ptr, ptr @stderr, align 8, !tbaa !4
  %38 = tail call ptr @__errno_location() #13
  %39 = load i32, ptr %38, align 4, !tbaa !22
  %40 = call ptr @strerror(i32 noundef %39) #9
  %41 = call i32 (ptr, ptr, ...) @fprintf(ptr noundef %37, ptr noundef nonnull @.str.5, ptr noundef nonnull %1, ptr noundef %40) #12
  br label %107

42:                                               ; preds = %33
  %43 = getelementptr inbounds nuw i8, ptr %0, i64 104
  %44 = load i64, ptr %43, align 8, !tbaa !23
  %.not35 = icmp eq i64 %44, 0
  br i1 %.not35, label %45, label %.thread

45:                                               ; preds = %42
  %46 = load i64, ptr %4, align 8, !tbaa !24
  %47 = call i32 (ptr, ...) @printf(ptr noundef nonnull dereferenceable(1) @.str.15, i64 noundef %46)
  br label %48

48:                                               ; preds = %60, %45
  %.014.i = phi i64 [ -9223372036854775808, %45 ], [ %61, %60 ]
  %49 = inttoptr i64 %.014.i to ptr
  %50 = call ptr @mmap(ptr noundef nonnull %49, i64 noundef %46, i32 noundef 3, i32 noundef 33, i32 noundef -1, i64 noundef 0) #9
  %.not.i = icmp eq ptr %50, inttoptr (i64 -1 to ptr)
  br i1 %.not.i, label %56, label %51

51:                                               ; preds = %48
  %52 = call i32 @munmap(ptr noundef %50, i64 noundef %46) #9
  %53 = icmp eq ptr %50, %49
  br i1 %53, label %62, label %54

54:                                               ; preds = %51
  %55 = call i32 (ptr, ...) @printf(ptr noundef nonnull dereferenceable(1) @.str.17, i64 noundef %.014.i)
  br label %60

56:                                               ; preds = %48
  %57 = tail call ptr @__errno_location() #13
  %58 = load i32, ptr %57, align 4, !tbaa !22
  %59 = call i32 (ptr, ...) @printf(ptr noundef nonnull dereferenceable(1) @.str.18, i64 noundef %.014.i, i32 noundef %58)
  br label %60

60:                                               ; preds = %56, %54
  %61 = lshr i64 %.014.i, 1
  %.not17.i = icmp ult i64 %.014.i, 2
  br i1 %.not17.i, label %.thread39, label %48

.thread39:                                        ; preds = %60
  store i64 0, ptr %43, align 8, !tbaa !23
  br label %64

62:                                               ; preds = %51
  %63 = call i32 (ptr, ...) @printf(ptr noundef nonnull dereferenceable(1) @.str.16, i64 noundef %.014.i)
  store i64 %.014.i, ptr %43, align 8, !tbaa !23
  %.not36 = icmp eq i64 %.014.i, 0
  br i1 %.not36, label %64, label %.thread

64:                                               ; preds = %.thread39, %62
  %65 = load ptr, ptr @stderr, align 8, !tbaa !4
  %66 = call i64 @fwrite(ptr nonnull @.str.6, i64 45, i64 1, ptr %65) #11
  %67 = call i32 @close(i32 noundef %34) #9
  %68 = call i32 @unlink(ptr noundef nonnull %1) #9
  br label %107

.thread:                                          ; preds = %42, %62
  %69 = phi i64 [ %.014.i, %62 ], [ %44, %42 ]
  store i32 1, ptr %3, align 8, !tbaa !25
  %70 = getelementptr inbounds nuw i8, ptr %3, i64 4
  store i32 32, ptr %70, align 4, !tbaa !27
  %71 = getelementptr inbounds nuw i8, ptr %3, i64 8
  store i64 %69, ptr %71, align 8, !tbaa !28
  %72 = load i64, ptr %4, align 8, !tbaa !24
  %73 = getelementptr inbounds nuw i8, ptr %3, i64 16
  store i64 %72, ptr %73, align 8, !tbaa !29
  %74 = call i64 @sysconf(i32 noundef 30) #9
  %75 = getelementptr inbounds nuw i8, ptr %3, i64 24
  store i64 %74, ptr %75, align 8, !tbaa !30
  %76 = call i64 @write(i32 noundef %34, ptr noundef nonnull %3, i64 noundef 32) #9
  %sext.mask = and i64 %76, 4294967295
  %.not37 = icmp eq i64 %sext.mask, 32
  br i1 %.not37, label %82, label %77

77:                                               ; preds = %.thread
  %78 = load ptr, ptr @stderr, align 8, !tbaa !4
  %79 = call i64 @fwrite(ptr nonnull @.str.7, i64 38, i64 1, ptr %78) #11
  %80 = call i32 @close(i32 noundef %34) #9
  %81 = call i32 @unlink(ptr noundef nonnull %1) #9
  br label %107

82:                                               ; preds = %.thread
  %83 = load ptr, ptr %0, align 8, !tbaa !21
  %84 = load i64, ptr %43, align 8, !tbaa !23
  %85 = inttoptr i64 %84 to ptr
  %86 = load i64, ptr %4, align 8, !tbaa !24
  %87 = call i32 @hwloc_shmem_topology_write(ptr noundef %83, i32 noundef %34, i64 noundef %74, ptr noundef %85, i64 noundef %86, i64 noundef 0) #9
  %88 = icmp slt i32 %87, 0
  br i1 %88, label %89, label %102

89:                                               ; preds = %82
  %90 = tail call ptr @__errno_location() #13
  %91 = load i32, ptr %90, align 4, !tbaa !22
  %92 = icmp eq i32 %91, 16
  %93 = load ptr, ptr @stderr, align 8, !tbaa !4
  br i1 %92, label %94, label %96

94:                                               ; preds = %89
  %95 = call i64 @fwrite(ptr nonnull @.str.8, i64 54, i64 1, ptr %93) #11
  br label %99

96:                                               ; preds = %89
  %97 = call ptr @strerror(i32 noundef %91) #9
  %98 = call i32 (ptr, ptr, ...) @fprintf(ptr noundef %93, ptr noundef nonnull @.str.2, ptr noundef nonnull %1, ptr noundef %97) #12
  br label %99

99:                                               ; preds = %96, %94
  %100 = call i32 @close(i32 noundef %34) #9
  %101 = call i32 @unlink(ptr noundef nonnull %1) #9
  br label %107

102:                                              ; preds = %82
  %103 = call i32 @close(i32 noundef %34) #9
  %104 = load i64, ptr %43, align 8, !tbaa !23
  %105 = load i64, ptr %4, align 8, !tbaa !24
  %106 = call i32 (ptr, ...) @printf(ptr noundef nonnull dereferenceable(1) @.str.9, ptr noundef nonnull %1, i64 noundef %104, i64 noundef %105)
  br label %107

107:                                              ; preds = %29, %31, %102, %99, %77, %64, %36, %16, %8
  %.0 = phi i32 [ -1, %36 ], [ -1, %77 ], [ -1, %99 ], [ 0, %102 ], [ -1, %64 ], [ -1, %16 ], [ -1, %8 ], [ -1, %31 ], [ -1, %29 ]
  call void @llvm.lifetime.end.p0(i64 144, ptr nonnull %5) #9
  call void @llvm.lifetime.end.p0(i64 8, ptr nonnull %4) #9
  call void @llvm.lifetime.end.p0(i64 32, ptr nonnull %3) #9
  ret i32 %.0
}